target datalayout = "e-m:e-p270:32:32-p271:32:32-p272:64:64-i64:64-i128:128-f80:128-n8:16:32:64-S128"
target triple = "x86_64-pc-linux-gnu"

%struct.strbuf = type { i64, i64, ptr }
%struct.lock_file = type { ptr }

@strbuf_slopbuf = external global [0 x i8], align 1
@__const.get_locked_file_path.ret = private unnamed_addr constant %struct.strbuf { i64 0, i64 0, ptr @strbuf_slopbuf }, align 8
@.str.3 = private unnamed_addr constant [6 x i8] c".lock\00", align 1
@.str.4 = private unnamed_addr constant [11 x i8] c"lockfile.c\00", align 1
@.str.5 = private unnamed_addr constant [56 x i8] c"get_locked_file_path() called for malformed lock object\00", align 1
@.str.7 = private unnamed_addr constant [11 x i8] c"./strbuf.h\00", align 1
@.str.8 = private unnamed_addr constant [30 x i8] c"strbuf_setlen() beyond buffer\00", align 1

; Function Attrs: inlinehint nounwind uwtable
define internal void @strbuf_setlen(ptr noundef %0, i64 noundef %1) #2 {
  %3 = alloca ptr, align 8
  %4 = alloca i64, align 8
  store ptr %0, ptr %3, align 8, !tbaa !11
  store i64 %1, ptr %4, align 8, !tbaa !19
  %5 = load i64, ptr %4, align 8, !tbaa !19
  %6 = load ptr, ptr %3, align 8, !tbaa !11
  %7 = getelementptr inbounds nuw %struct.strbuf, ptr %6, i32 0, i32 0
  %8 = load i64, ptr %7, align 8, !tbaa !24
  %9 = icmp ne i64 %8, 0
  br i1 %9, label %10, label %15

10:                                               ; preds = %2
  %11 = load ptr, ptr %3, align 8, !tbaa !11
  %12 = getelementptr inbounds nuw %struct.strbuf, ptr %11, i32 0, i32 0
  %13 = load i64, ptr %12, align 8, !tbaa !24
  %14 = sub i64 %13, 1
  br label %16

15:                                               ; preds = %2
  br label %16

16:                                               ; preds = %15, %10
  %17 = phi i64 [ %14, %10 ], [ 0, %15 ]
  %18 = icmp ugt i64 %5, %17
  br i1 %18, label %19, label %20

19:                                               ; preds = %16
  call void (ptr, i32, ptr, ...) @BUG_fl(ptr noundef @.str.7, i32 noundef 167, ptr noundef @.str.8) #11
  unreachable

20:                                               ; preds = %16
  %21 = load i64, ptr %4, align 8, !tbaa !19
  %22 = load ptr, ptr %3, align 8, !tbaa !11
  %23 = getelementptr inbounds nuw %struct.strbuf, ptr %22, i32 0, i32 1
  store i64 %21, ptr %23, align 8, !tbaa !23
  %24 = load ptr, ptr %3, align 8, !tbaa !11
  %25 = getelementptr inbounds nuw %struct.strbuf, ptr %24, i32 0, i32 2
  %26 = load ptr, ptr %25, align 8, !tbaa !14
  %27 = icmp ne ptr %26, @strbuf_slopbuf
  br i1 %27, label %28, label %34

28:                                               ; preds = %20
  %29 = load ptr, ptr %3, align 8, !tbaa !11
  %30 = getelementptr inbounds nuw %struct.strbuf, ptr %29, i32 0, i32 2
  %31 = load ptr, ptr %30, align 8, !tbaa !14
  %32 = load i64, ptr %4, align 8, !tbaa !19
  %33 = getelementptr inbounds nuw i8, ptr %31, i64 %32
  store i8 0, ptr %33, align 1, !tbaa !13
  br label %35

34:                                               ; preds = %20
  br label %35

35:                                               ; preds = %34, %28
  ret void
}

; Function Attrs: inlinehint nounwind uwtable
define internal void @strbuf_addstr(ptr noundef %0, ptr noundef %1) #2 {
  %3 = alloca ptr, align 8
  %4 = alloca ptr, align 8
  store ptr %0, ptr %3, align 8, !tbaa !11
  store ptr %1, ptr %4, align 8, !tbaa !4
  %5 = load ptr, ptr %3, align 8, !tbaa !11
  %6 = load ptr, ptr %4, align 8, !tbaa !4
  %7 = load ptr, ptr %4, align 8, !tbaa !4
  %8 = call i64 @strlen(ptr noundef %7) #13
  call void @strbuf_add(ptr noundef %5, ptr noundef %6, i64 noundef %8)
  ret void
}

; Function Attrs: nounwind uwtable
define dso_local ptr @get_locked_file_path(ptr noundef %0) #0 {
  %2 = alloca ptr, align 8
  %3 = alloca %struct.strbuf, align 8
  store ptr %0, ptr %2, align 8, !tbaa !17
  call void @llvm.lifetime.start.p0(i64 24, ptr %3) #10
  call void @llvm.memcpy.p0.p0.i64(ptr align 8 %3, ptr align 8 @__const.get_locked_file_path.ret, i64 24, i1 false)
  %4 = load ptr, ptr %2, align 8, !tbaa !17
  %5 = getelementptr inbounds nuw %struct.lock_file, ptr %4, i32 0, i32 0
  %6 = load ptr, ptr %5, align 8, !tbaa !20
  %7 = call ptr @get_tempfile_path(ptr noundef %6)
  call void @strbuf_addstr(ptr noundef %3, ptr noundef %7)
  %8 = getelementptr inbounds nuw %struct.strbuf, ptr %3, i32 0, i32 1
  %9 = load i64, ptr %8, align 8, !tbaa !23
  %10 = icmp ule i64 %9, 5
  br i1 %10, label %20, label %11

11:                                               ; preds = %1
  %12 = getelementptr inbounds nuw %struct.strbuf, ptr %3, i32 0, i32 2
  %13 = load ptr, ptr %12, align 8, !tbaa !14
  %14 = getelementptr inbounds nuw %struct.strbuf, ptr %3, i32 0, i32 1
  %15 = load i64, ptr %14, align 8, !tbaa !23
  %16 = getelementptr inbounds nuw i8, ptr %13, i64 %15
  %17 = getelementptr inbounds i8, ptr %16, i64 -5
  %18 = call i32 @strcmp(ptr noundef %17, ptr noundef @.str.3) #13
  %19 = icmp ne i32 %18, 0
  br i1 %19, label %20, label %21

20:                                               ; preds = %11, %1
  call void (ptr, i32, ptr, ...) @BUG_fl(ptr noundef @.str.4, i32 noundef 200, ptr noundef @.str.5) #11
  unreachable

21:                                               ; preds = %11
  %22 = getelementptr inbounds nuw %struct.strbuf, ptr %3, i32 0, i32 1
  %23 = load i64, ptr %22, align 8, !tbaa !23
  %24 = sub i64 %23, 5
  call void @strbuf_setlen(ptr noundef %3, i64 noundef %24)
  %25 = call ptr @strbuf_detach(ptr noundef %3, ptr noundef null)
  call void @llvm.lifetime.end.p0(i64 24, ptr %3) #10
  ret ptr %25
}