; Function Attrs: nounwind uwtable
define dso_local ptr @get_locked_file_path(ptr noundef readonly captures(none) %0) local_unnamed_addr #0 {
  %2 = alloca %struct.strbuf, align 8
  call void @llvm.lifetime.start.p0(i64 24, ptr nonnull %2) #11
  call void @llvm.memcpy.p0.p0.i64(ptr noundef nonnull align 8 dereferenceable(24) %2, ptr noundef nonnull align 8 dereferenceable(24) @__const.lock_file.filename, i64 24, i1 false)
  %3 = load ptr, ptr %0, align 8, !tbaa !13
  %4 = tail call ptr @get_tempfile_path(ptr noundef %3) #11
  %5 = tail call i64 @strlen(ptr noundef nonnull dereferenceable(1) %4) #15
  call void @strbuf_add(ptr noundef nonnull %2, ptr noundef nonnull %4, i64 noundef %5) #11
  %6 = getelementptr inbounds nuw i8, ptr %2, i64 8
  %7 = load i64, ptr %6, align 8, !tbaa !16
  %8 = icmp ult i64 %7, 6
  br i1 %8, label %15, label %9

9:                                                ; preds = %1
  %10 = getelementptr inbounds nuw i8, ptr %2, i64 16
  %11 = load ptr, ptr %10, align 8, !tbaa !8
  %12 = getelementptr inbounds nuw i8, ptr %11, i64 %7
  %13 = getelementptr inbounds i8, ptr %12, i64 -5
  %14 = call i32 @strcmp(ptr noundef nonnull dereferenceable(1) %13, ptr noundef nonnull dereferenceable(6) @.str.3) #15
  %.not = icmp eq i32 %14, 0
  br i1 %.not, label %16, label %15

15:                                               ; preds = %9, %1
  call void (ptr, i32, ptr, ...) @BUG_fl(ptr noundef nonnull @.str.4, i32 noundef 200, ptr noundef nonnull @.str.5) #12
  unreachable

16:                                               ; preds = %9
  %17 = add i64 %7, -5
  %18 = load i64, ptr %2, align 8, !tbaa !17
  %spec.select.i = call i64 @llvm.usub.sat.i64(i64 %18, i64 1)
  %19 = icmp ugt i64 %17, %spec.select.i
  br i1 %19, label %20, label %21

20:                                               ; preds = %16
  call void (ptr, i32, ptr, ...) @BUG_fl(ptr noundef nonnull @.str.7, i32 noundef 167, ptr noundef nonnull @.str.8) #12
  unreachable

21:                                               ; preds = %16
  store i64 %17, ptr %6, align 8, !tbaa !16
  %.not9.i = icmp eq ptr %11, @strbuf_slopbuf
  br i1 %.not9.i, label %strbuf_setlen.exit, label %22

22:                                               ; preds = %21
  %23 = getelementptr inbounds nuw i8, ptr %11, i64 %17
  store i8 0, ptr %23, align 1, !tbaa !18
  br label %strbuf_setlen.exit

strbuf_setlen.exit:                               ; preds = %21, %22
  %24 = call ptr @strbuf_detach(ptr noundef nonnull %2, ptr noundef null) #11
  call void @llvm.lifetime.end.p0(i64 24, ptr nonnull %2) #11
  ret ptr %24
}